target datalayout = "e-m:e-p270:32:32-p271:32:32-p272:64:64-i64:64-i128:128-f80:128-n8:16:32:64-S128"
target triple = "x86_64-pc-linux-gnu"

%struct.gz_state = type { %struct.gzFile_s, i32, i32, ptr, i32, i32, ptr, ptr, i32, i32, i64, i32, i32, i32, i32, i64, i32, i32, ptr, %struct.z_stream_s }
%struct.gzFile_s = type { i32, ptr, i64 }
%struct.z_stream_s = type { ptr, i32, i64, ptr, i32, i64, ptr, ptr, ptr, ptr, ptr, i32, i64, i64, i32 }

@.str.2 = private unnamed_addr constant [23 x i8] c"unexpected end of file\00", align 1
@.str.3 = private unnamed_addr constant [39 x i8] c"internal error: inflate stream corrupt\00", align 1
@.str.4 = private unnamed_addr constant [14 x i8] c"out of memory\00", align 1
@.str.5 = private unnamed_addr constant [22 x i8] c"compressed data error\00", align 1

; Function Attrs: nounwind uwtable
define internal i32 @gz_decomp(ptr noundef %0) #0 {
  %2 = alloca i32, align 4
  %3 = alloca ptr, align 8
  %4 = alloca i32, align 4
  %5 = alloca i32, align 4
  %6 = alloca ptr, align 8
  %7 = alloca i32, align 4
  store ptr %0, ptr %3, align 8, !tbaa !8
  call void @llvm.lifetime.start.p0(i64 4, ptr %4) #8
  store i32 0, ptr %4, align 4, !tbaa !9
  call void @llvm.lifetime.start.p0(i64 4, ptr %5) #8
  call void @llvm.lifetime.start.p0(i64 8, ptr %6) #8
  %8 = load ptr, ptr %3, align 8, !tbaa !8
  %9 = getelementptr inbounds nuw %struct.gz_state, ptr %8, i32 0, i32 19
  store ptr %9, ptr %6, align 8, !tbaa !11
  %10 = load ptr, ptr %6, align 8, !tbaa !11
  %11 = getelementptr inbounds nuw %struct.z_stream_s, ptr %10, i32 0, i32 4
  %12 = load i32, ptr %11, align 8, !tbaa !30
  store i32 %12, ptr %5, align 4, !tbaa !9
  br label %13

13:                                               ; preds = %70, %1
  %14 = load ptr, ptr %6, align 8, !tbaa !11
  %15 = getelementptr inbounds nuw %struct.z_stream_s, ptr %14, i32 0, i32 1
  %16 = load i32, ptr %15, align 8, !tbaa !26
  %17 = icmp eq i32 %16, 0
  br i1 %17, label %18, label %23

18:                                               ; preds = %13
  %19 = load ptr, ptr %3, align 8, !tbaa !8
  %20 = call i32 @gz_avail(ptr noundef %19)
  %21 = icmp eq i32 %20, -1
  br i1 %21, label %22, label %23

22:                                               ; preds = %18
  store i32 -1, ptr %2, align 4
  store i32 1, ptr %7, align 4
  br label %100

23:                                               ; preds = %18, %13
  %24 = load ptr, ptr %6, align 8, !tbaa !11
  %25 = getelementptr inbounds nuw %struct.z_stream_s, ptr %24, i32 0, i32 1
  %26 = load i32, ptr %25, align 8, !tbaa !26
  %27 = icmp eq i32 %26, 0
  br i1 %27, label %28, label %30

28:                                               ; preds = %23
  %29 = load ptr, ptr %3, align 8, !tbaa !8
  call void @MOZ_Z_gz_error(ptr noundef %29, i32 noundef -5, ptr noundef @.str.2)
  br label %72

30:                                               ; preds = %23
  %31 = load ptr, ptr %6, align 8, !tbaa !11
  %32 = call i32 @MOZ_Z_inflate(ptr noundef %31, i32 noundef 0)
  store i32 %32, ptr %4, align 4, !tbaa !9
  %33 = load i32, ptr %4, align 4, !tbaa !9
  %34 = icmp eq i32 %33, -2
  br i1 %34, label %38, label %35

35:                                               ; preds = %30
  %36 = load i32, ptr %4, align 4, !tbaa !9
  %37 = icmp eq i32 %36, 2
  br i1 %37, label %38, label %40

38:                                               ; preds = %35, %30
  %39 = load ptr, ptr %3, align 8, !tbaa !8
  call void @MOZ_Z_gz_error(ptr noundef %39, i32 noundef -2, ptr noundef @.str.3)
  store i32 -1, ptr %2, align 4
  store i32 1, ptr %7, align 4
  br label %100

40:                                               ; preds = %35
  %41 = load i32, ptr %4, align 4, !tbaa !9
  %42 = icmp eq i32 %41, -4
  br i1 %42, label %43, label %45

43:                                               ; preds = %40
  %44 = load ptr, ptr %3, align 8, !tbaa !8
  call void @MOZ_Z_gz_error(ptr noundef %44, i32 noundef -4, ptr noundef @.str.4)
  store i32 -1, ptr %2, align 4
  store i32 1, ptr %7, align 4
  br label %100

45:                                               ; preds = %40
  %46 = load i32, ptr %4, align 4, !tbaa !9
  %47 = icmp eq i32 %46, -3
  br i1 %47, label %48, label %61

48:                                               ; preds = %45
  %49 = load ptr, ptr %3, align 8, !tbaa !8
  %50 = load ptr, ptr %6, align 8, !tbaa !11
  %51 = getelementptr inbounds nuw %struct.z_stream_s, ptr %50, i32 0, i32 6
  %52 = load ptr, ptr %51, align 8, !tbaa !45
  %53 = icmp eq ptr %52, null
  br i1 %53, label %54, label %55

54:                                               ; preds = %48
  br label %59

55:                                               ; preds = %48
  %56 = load ptr, ptr %6, align 8, !tbaa !11
  %57 = getelementptr inbounds nuw %struct.z_stream_s, ptr %56, i32 0, i32 6
  %58 = load ptr, ptr %57, align 8, !tbaa !45
  br label %59

59:                                               ; preds = %55, %54
  %60 = phi ptr [ @.str.5, %54 ], [ %58, %55 ]
  call void @MOZ_Z_gz_error(ptr noundef %49, i32 noundef -3, ptr noundef %60)
  store i32 -1, ptr %2, align 4
  store i32 1, ptr %7, align 4
  br label %100

61:                                               ; preds = %45
  br label %62

62:                                               ; preds = %61
  %63 = load ptr, ptr %6, align 8, !tbaa !11
  %64 = getelementptr inbounds nuw %struct.z_stream_s, ptr %63, i32 0, i32 4
  %65 = load i32, ptr %64, align 8, !tbaa !30
  %66 = icmp ne i32 %65, 0
  br i1 %66, label %67, label %70

67:                                               ; preds = %62
  %68 = load i32, ptr %4, align 4, !tbaa !9
  %69 = icmp ne i32 %68, 1
  br label %70

70:                                               ; preds = %67, %62
  %71 = phi i1 [ false, %62 ], [ %69, %67 ]
  br i1 %71, label %13, label %72, !llvm.loop !46

72:                                               ; preds = %70, %28
  %73 = load i32, ptr %5, align 4, !tbaa !9
  %74 = load ptr, ptr %6, align 8, !tbaa !11
  %75 = getelementptr inbounds nuw %struct.z_stream_s, ptr %74, i32 0, i32 4
  %76 = load i32, ptr %75, align 8, !tbaa !30
  %77 = sub i32 %73, %76
  %78 = load ptr, ptr %3, align 8, !tbaa !8
  %79 = getelementptr inbounds nuw %struct.gz_state, ptr %78, i32 0, i32 0
  %80 = getelementptr inbounds nuw %struct.gzFile_s, ptr %79, i32 0, i32 0
  store i32 %77, ptr %80, align 8, !tbaa !23
  %81 = load ptr, ptr %6, align 8, !tbaa !11
  %82 = getelementptr inbounds nuw %struct.z_stream_s, ptr %81, i32 0, i32 3
  %83 = load ptr, ptr %82, align 8, !tbaa !31
  %84 = load ptr, ptr %3, align 8, !tbaa !8
  %85 = getelementptr inbounds nuw %struct.gz_state, ptr %84, i32 0, i32 0
  %86 = getelementptr inbounds nuw %struct.gzFile_s, ptr %85, i32 0, i32 0
  %87 = load i32, ptr %86, align 8, !tbaa !23
  %88 = zext i32 %87 to i64
  %89 = sub i64 0, %88
  %90 = getelementptr inbounds i8, ptr %83, i64 %89
  %91 = load ptr, ptr %3, align 8, !tbaa !8
  %92 = getelementptr inbounds nuw %struct.gz_state, ptr %91, i32 0, i32 0
  %93 = getelementptr inbounds nuw %struct.gzFile_s, ptr %92, i32 0, i32 1
  store ptr %90, ptr %93, align 8, !tbaa !24
  %94 = load i32, ptr %4, align 4, !tbaa !9
  %95 = icmp eq i32 %94, 1
  br i1 %95, label %96, label %99

96:                                               ; preds = %72
  %97 = load ptr, ptr %3, align 8, !tbaa !8
  %98 = getelementptr inbounds nuw %struct.gz_state, ptr %97, i32 0, i32 9
  store i32 0, ptr %98, align 4, !tbaa !28
  br label %99

99:                                               ; preds = %96, %72
  store i32 0, ptr %2, align 4
  store i32 1, ptr %7, align 4
  br label %100

100:                                              ; preds = %99, %59, %43, %38, %22
  call void @llvm.lifetime.end.p0(i64 8, ptr %6) #8
  call void @llvm.lifetime.end.p0(i64 4, ptr %5) #8
  call void @llvm.lifetime.end.p0(i64 4, ptr %4) #8
  %101 = load i32, ptr %2, align 4
  ret i32 %101
}