; Function Attrs: nounwind uwtable
define internal fastcc range(i32 -1, 1) i32 @gz_decomp(ptr noundef nonnull %0) unnamed_addr #0 {
  %2 = getelementptr inbounds nuw i8, ptr %0, i64 120
  %3 = getelementptr inbounds nuw i8, ptr %0, i64 152
  %4 = load i32, ptr %3, align 8, !tbaa !31
  %5 = getelementptr inbounds nuw i8, ptr %0, i64 128
  br label %6

6:                                                ; preds = %22, %1
  %.027 = phi i32 [ 0, %1 ], [ %15, %22 ]
  %7 = load i32, ptr %5, align 8, !tbaa !24
  %8 = icmp eq i32 %7, 0
  br i1 %8, label %9, label %.thread

9:                                                ; preds = %6
  %10 = tail call fastcc i32 @gz_avail(ptr noundef %0)
  %11 = icmp eq i32 %10, -1
  br i1 %11, label %.loopexit, label %12

12:                                               ; preds = %9
  %.pr = load i32, ptr %5, align 8, !tbaa !24
  %13 = icmp eq i32 %.pr, 0
  br i1 %13, label %14, label %.thread

14:                                               ; preds = %12
  tail call void @MOZ_Z_gz_error(ptr noundef nonnull %0, i32 noundef -5, ptr noundef nonnull @.str.2) #12
  %.pre = load i32, ptr %3, align 8, !tbaa !31
  br label %.loopexit30

.thread:                                          ; preds = %6, %12
  %15 = tail call i32 @MOZ_Z_inflate(ptr noundef nonnull %2, i32 noundef 0) #12
  switch i32 %15, label %22 [
    i32 -2, label %16
    i32 2, label %16
    i32 -4, label %17
    i32 -3, label %18
  ]

16:                                               ; preds = %.thread, %.thread
  tail call void @MOZ_Z_gz_error(ptr noundef nonnull %0, i32 noundef -2, ptr noundef nonnull @.str.3) #12
  br label %.loopexit

17:                                               ; preds = %.thread
  tail call void @MOZ_Z_gz_error(ptr noundef nonnull %0, i32 noundef -4, ptr noundef nonnull @.str.4) #12
  br label %.loopexit

18:                                               ; preds = %.thread
  %19 = getelementptr inbounds nuw i8, ptr %0, i64 168
  %20 = load ptr, ptr %19, align 8, !tbaa !36
  %21 = icmp eq ptr %20, null
  %spec.select = select i1 %21, ptr @.str.5, ptr %20
  tail call void @MOZ_Z_gz_error(ptr noundef nonnull %0, i32 noundef -3, ptr noundef nonnull %spec.select) #12
  br label %.loopexit

22:                                               ; preds = %.thread
  %23 = load i32, ptr %3, align 8, !tbaa !31
  %24 = icmp ne i32 %23, 0
  %25 = icmp ne i32 %15, 1
  %26 = and i1 %25, %24
  br i1 %26, label %6, label %.loopexit30, !llvm.loop !37

.loopexit30:                                      ; preds = %22, %14
  %27 = phi i32 [ %.pre, %14 ], [ %23, %22 ]
  %.1 = phi i32 [ %.027, %14 ], [ %15, %22 ]
  %28 = sub i32 %4, %27
  store i32 %28, ptr %0, align 8, !tbaa !17
  %29 = getelementptr inbounds nuw i8, ptr %0, i64 144
  %30 = load ptr, ptr %29, align 8, !tbaa !32
  %31 = zext i32 %28 to i64
  %32 = sub nsw i64 0, %31
  %33 = getelementptr inbounds i8, ptr %30, i64 %32
  %34 = getelementptr inbounds nuw i8, ptr %0, i64 8
  store ptr %33, ptr %34, align 8, !tbaa !18
  %35 = icmp eq i32 %.1, 1
  br i1 %35, label %36, label %.loopexit

36:                                               ; preds = %.loopexit30
  %37 = getelementptr inbounds nuw i8, ptr %0, i64 68
  store i32 0, ptr %37, align 4, !tbaa !26
  br label %.loopexit

.loopexit:                                        ; preds = %9, %.loopexit30, %36, %18, %17, %16
  %.0 = phi i32 [ -1, %16 ], [ -1, %17 ], [ -1, %18 ], [ 0, %36 ], [ 0, %.loopexit30 ], [ -1, %9 ]
  ret i32 %.0
}